target datalayout = "e-m:e-p270:32:32-p271:32:32-p272:64:64-i64:64-i128:128-f80:128-n8:16:32:64-S128"
target triple = "x86_64-pc-linux-gnu"

%"struct.std::pair.38" = type { i32, ptr }
%"class.frozen::map.54" = type { [8 x i8], %"class.frozen::bits::carray.55" }
%"class.frozen::bits::carray.55" = type { [84 x %"struct.std::pair.38"] }

@.str.43 = private unnamed_addr constant [8 x i8] c"UNKNOWN\00", align 1

; Function Attrs: mustprogress nounwind uwtable
define linkonce_odr hidden noundef ptr @_ZNK6frozen4bits6carrayISt4pairIN4LIEF3ELF10Relocation4TYPEEPKcELm84EE3endEv(ptr noundef nonnull align 8 dereferenceable(1344) %0) #1 comdat align 2 {
  %2 = alloca ptr, align 8
  store ptr %0, ptr %2, align 8, !tbaa !67
  %3 = load ptr, ptr %2, align 8
  %4 = getelementptr inbounds nuw %"class.frozen::bits::carray.55", ptr %3, i32 0, i32 0
  %5 = getelementptr inbounds [84 x %"struct.std::pair.38"], ptr %4, i64 0, i64 0
  %6 = getelementptr inbounds nuw %"struct.std::pair.38", ptr %5, i64 84
  ret ptr %6
}

; Function Attrs: mustprogress nounwind uwtable
define linkonce_odr hidden noundef ptr @_ZNK6frozen3mapIN4LIEF3ELF10Relocation4TYPEEPKcLm84ESt4lessIS4_EE3endEv(ptr noundef nonnull align 8 dereferenceable(1352) %0) #1 comdat align 2 {
  %2 = alloca ptr, align 8
  store ptr %0, ptr %2, align 8, !tbaa !30
  %3 = load ptr, ptr %2, align 8
  %4 = getelementptr inbounds nuw %"class.frozen::map.54", ptr %3, i32 0, i32 1
  %5 = call noundef ptr @_ZNK6frozen4bits6carrayISt4pairIN4LIEF3ELF10Relocation4TYPEEPKcELm84EE3endEv(ptr noundef nonnull align 8 dereferenceable(1344) %4) #5
  ret ptr %5
}

; Function Attrs: mustprogress nounwind uwtable
define hidden noundef ptr @_ZN4LIEF3ELF9to_stringILj1207959552EEEPKcNS0_10Relocation4TYPEE(i32 noundef %0) #1 {
  %2 = alloca ptr, align 8
  %3 = alloca i32, align 4
  %4 = alloca %"class.frozen::map.54", align 8
  %5 = alloca ptr, align 8
  %6 = alloca i32, align 4
  store i32 %0, ptr %3, align 4, !tbaa !3
  call void @llvm.lifetime.start.p0(i64 1352, ptr %4) #5
  call void @llvm.memcpy.p0.p0.i64(ptr align 8 %4, ptr align 8 @__const._ZN4LIEF3ELF9to_stringILj1207959552EEEPKcNS0_10Relocation4TYPEE.enums2str, i64 1352, i1 false)
  call void @llvm.lifetime.start.p0(i64 8, ptr %5) #5
  %7 = call noundef ptr @_ZNK6frozen3mapIN4LIEF3ELF10Relocation4TYPEEPKcLm84ESt4lessIS4_EE4findIS4_EEPKSt4pairIS4_S6_ERKT_(ptr noundef nonnull align 8 dereferenceable(1352) %4, ptr noundef nonnull align 4 dereferenceable(4) %3)
  store ptr %7, ptr %5, align 8, !tbaa !7
  %8 = load ptr, ptr %5, align 8, !tbaa !7
  %9 = call noundef ptr @_ZNK6frozen3mapIN4LIEF3ELF10Relocation4TYPEEPKcLm84ESt4lessIS4_EE3endEv(ptr noundef nonnull align 8 dereferenceable(1352) %4)
  %10 = icmp ne ptr %8, %9
  br i1 %10, label %11, label %15

11:                                               ; preds = %1
  %12 = load ptr, ptr %5, align 8, !tbaa !7
  %13 = getelementptr inbounds nuw %"struct.std::pair.38", ptr %12, i32 0, i32 1
  %14 = load ptr, ptr %13, align 8, !tbaa !10
  store ptr %14, ptr %2, align 8
  store i32 1, ptr %6, align 4
  br label %16

15:                                               ; preds = %1
  store i32 0, ptr %6, align 4
  br label %16

16:                                               ; preds = %15, %11
  call void @llvm.lifetime.end.p0(i64 8, ptr %5) #5
  %17 = load i32, ptr %6, align 4
  switch i32 %17, label %19 [
    i32 0, label %18
  ]

18:                                               ; preds = %16
  store ptr @.str.43, ptr %2, align 8
  store i32 1, ptr %6, align 4
  br label %19

19:                                               ; preds = %18, %16
  call void @llvm.lifetime.end.p0(i64 1352, ptr %4) #5
  %20 = load ptr, ptr %2, align 8
  ret ptr %20
}