; Function Attrs: mustprogress nounwind uwtable
define hidden noundef ptr @_ZN4LIEF3ELF9to_stringILj1207959552EEEPKcNS0_10Relocation4TYPEE(i32 noundef %0) local_unnamed_addr #3 {
  %2 = alloca i32, align 4
  %3 = alloca %"class.frozen::map.54", align 8
  store i32 %0, ptr %2, align 4, !tbaa !3
  call void @llvm.lifetime.start.p0(i64 1352, ptr nonnull %3) #5
  call void @llvm.memcpy.p0.p0.i64(ptr noundef nonnull align 8 dereferenceable(1352) %3, ptr noundef nonnull align 8 dereferenceable(1352) @__const._ZN4LIEF3ELF9to_stringILj1207959552EEEPKcNS0_10Relocation4TYPEE.enums2str, i64 1352, i1 false)
  %4 = call noundef ptr @_ZNK6frozen3mapIN4LIEF3ELF10Relocation4TYPEEPKcLm84ESt4lessIS4_EE4findIS4_EEPKSt4pairIS4_S6_ERKT_(ptr noundef nonnull align 8 dereferenceable(1352) %3, ptr noundef nonnull align 4 dereferenceable(4) %2)
  %5 = getelementptr inbounds nuw i8, ptr %3, i64 1352
  %.not = icmp eq ptr %4, %5
  br i1 %.not, label %9, label %6

6:                                                ; preds = %1
  %7 = getelementptr inbounds nuw i8, ptr %4, i64 8
  %8 = load ptr, ptr %7, align 8, !tbaa !7
  br label %9

9:                                                ; preds = %1, %6
  %spec.select = phi ptr [ %8, %6 ], [ @.str.43, %1 ]
  call void @llvm.lifetime.end.p0(i64 1352, ptr nonnull %3) #5
  ret ptr %spec.select
}